target datalayout = "e-m:e-p270:32:32-p271:32:32-p272:64:64-i64:64-i128:128-f80:128-n8:16:32:64-S128"
target triple = "x86_64-pc-linux-gnu"

; Function Attrs: nounwind uwtable
define dso_local i32 @writen(i32 noundef %0, ptr noundef %1, i32 noundef %2) #0 {
  %4 = alloca i32, align 4
  %5 = alloca i32, align 4
  %6 = alloca ptr, align 8
  %7 = alloca i32, align 4
  %8 = alloca i32, align 4
  %9 = alloca i32, align 4
  %10 = alloca ptr, align 8
  store i32 %0, ptr %5, align 4
  store ptr %1, ptr %6, align 8
  store i32 %2, ptr %7, align 4
  %11 = load i32, ptr %7, align 4
  store i32 %11, ptr %9, align 4
  %12 = load ptr, ptr %6, align 8
  store ptr %12, ptr %10, align 8
  br label %13

13:                                               ; preds = %36, %3
  %14 = load i32, ptr %5, align 4
  %15 = load ptr, ptr %10, align 8
  %16 = load i32, ptr %9, align 4
  %17 = zext i32 %16 to i64
  %18 = call i64 @write(i32 noundef %14, ptr noundef %15, i64 noundef %17)
  %19 = trunc i64 %18 to i32
  store i32 %19, ptr %8, align 4
  %20 = load i32, ptr %8, align 4
  %21 = icmp slt i32 %20, 0
  br i1 %21, label %22, label %28

22:                                               ; preds = %13
  %23 = call ptr @__errno_location() #18
  %24 = load i32, ptr %23, align 4
  %25 = icmp eq i32 %24, 4
  br i1 %25, label %26, label %27

26:                                               ; preds = %22
  br label %36

27:                                               ; preds = %22
  store i32 -1, ptr %4, align 4
  br label %41

28:                                               ; preds = %13
  %29 = load i32, ptr %8, align 4
  %30 = load i32, ptr %9, align 4
  %31 = sub i32 %30, %29
  store i32 %31, ptr %9, align 4
  %32 = load i32, ptr %8, align 4
  %33 = load ptr, ptr %10, align 8
  %34 = sext i32 %32 to i64
  %35 = getelementptr inbounds i8, ptr %33, i64 %34
  store ptr %35, ptr %10, align 8
  br label %36

36:                                               ; preds = %28, %26
  %37 = load i32, ptr %9, align 4
  %38 = icmp ugt i32 %37, 0
  br i1 %38, label %13, label %39

39:                                               ; preds = %36
  %40 = load i32, ptr %7, align 4
  store i32 %40, ptr %4, align 4
  br label %41

41:                                               ; preds = %39, %27
  %42 = load i32, ptr %4, align 4
  ret i32 %42
}