; Function Attrs: nofree nounwind uwtable
define dso_local noundef i32 @writen(i32 noundef %0, ptr nocapture noundef readonly %1, i32 noundef %2) local_unnamed_addr #13 {
  br label %4

4:                                                ; preds = %17, %3
  %.012 = phi i32 [ %2, %3 ], [ %.113, %17 ]
  %.0 = phi ptr [ %1, %3 ], [ %.1, %17 ]
  %5 = zext i32 %.012 to i64
  %6 = tail call i64 @write(i32 noundef %0, ptr noundef %.0, i64 noundef %5) #21
  %7 = trunc i64 %6 to i32
  %8 = icmp slt i32 %7, 0
  br i1 %8, label %9, label %13

9:                                                ; preds = %4
  %10 = tail call ptr @__errno_location() #27
  %11 = load i32, ptr %10, align 4
  %12 = icmp eq i32 %11, 4
  br i1 %12, label %17, label %18

13:                                               ; preds = %4
  %14 = sub i32 %.012, %7
  %15 = and i64 %6, 2147483647
  %16 = getelementptr inbounds i8, ptr %.0, i64 %15
  br label %17

17:                                               ; preds = %9, %13
  %.113 = phi i32 [ %.012, %9 ], [ %14, %13 ]
  %.1 = phi ptr [ %.0, %9 ], [ %16, %13 ]
  %.not = icmp eq i32 %.113, 0
  br i1 %.not, label %18, label %4

18:                                               ; preds = %17, %9
  %.014 = phi i32 [ -1, %9 ], [ %2, %17 ]
  ret i32 %.014
}